target datalayout = "e-m:e-p270:32:32-p271:32:32-p272:64:64-i64:64-i128:128-f80:128-n8:16:32:64-S128"
target triple = "x86_64-pc-linux-gnu"

%struct.slurmctld_resv = type { i16, ptr, i32, ptr, ptr, i32, ptr, ptr, i32, ptr, i32, ptr, i32, i64, i64, ptr, i64, ptr, ptr, i32, i32, ptr, ptr, i32, ptr, ptr, i32, ptr, ptr, ptr, i32, i32, i64, i64, i64, i64, ptr, ptr, ptr, i32, ptr }

@resv_list = dso_local global ptr null, align 8
@node_record_count = external global i32, align 4

; Function Attrs: nounwind uwtable
define dso_local zeroext i1 @is_node_in_maint_reservation(i32 noundef %0) #0 {
  %2 = alloca i1, align 1
  %3 = alloca i32, align 4
  %4 = alloca i8, align 1
  %5 = alloca ptr, align 8
  %6 = alloca ptr, align 8
  %7 = alloca i64, align 8
  %8 = alloca i32, align 4
  store i32 %0, ptr %3, align 4
  call void @llvm.lifetime.start.p0(i64 1, ptr %4) #10
  store i8 0, ptr %4, align 1
  call void @llvm.lifetime.start.p0(i64 8, ptr %5) #10
  call void @llvm.lifetime.start.p0(i64 8, ptr %6) #10
  call void @llvm.lifetime.start.p0(i64 8, ptr %7) #10
  %9 = load i32, ptr %3, align 4
  %10 = icmp slt i32 %9, 0
  br i1 %10, label %18, label %11

11:                                               ; preds = %1
  %12 = load i32, ptr %3, align 4
  %13 = load i32, ptr @node_record_count, align 4
  %14 = icmp sge i32 %12, %13
  br i1 %14, label %18, label %15

15:                                               ; preds = %11
  %16 = load ptr, ptr @resv_list, align 8
  %17 = icmp ne ptr %16, null
  br i1 %17, label %19, label %18

18:                                               ; preds = %15, %11, %1
  store i1 false, ptr %2, align 1
  store i32 1, ptr %8, align 4
  br label %66

19:                                               ; preds = %15
  %20 = call i64 @time(ptr noundef null) #10
  store i64 %20, ptr %7, align 8
  %21 = load ptr, ptr @resv_list, align 8
  %22 = call ptr @list_iterator_create(ptr noundef %21)
  store ptr %22, ptr %5, align 8
  br label %23

23:                                               ; preds = %61, %46, %33, %19
  %24 = load ptr, ptr %5, align 8
  %25 = call ptr @list_next(ptr noundef %24)
  store ptr %25, ptr %6, align 8
  %26 = icmp ne ptr %25, null
  br i1 %26, label %27, label %62

27:                                               ; preds = %23
  %28 = load ptr, ptr %6, align 8
  %29 = getelementptr inbounds nuw %struct.slurmctld_resv, ptr %28, i32 0, i32 16
  %30 = load i64, ptr %29, align 8
  %31 = and i64 %30, 1
  %32 = icmp eq i64 %31, 0
  br i1 %32, label %33, label %34

33:                                               ; preds = %27
  br label %23, !llvm.loop !75

34:                                               ; preds = %27
  %35 = load i64, ptr %7, align 8
  %36 = load ptr, ptr %6, align 8
  %37 = getelementptr inbounds nuw %struct.slurmctld_resv, ptr %36, i32 0, i32 32
  %38 = load i64, ptr %37, align 8
  %39 = icmp sge i64 %35, %38
  br i1 %39, label %40, label %46

40:                                               ; preds = %34
  %41 = load i64, ptr %7, align 8
  %42 = load ptr, ptr %6, align 8
  %43 = getelementptr inbounds nuw %struct.slurmctld_resv, ptr %42, i32 0, i32 13
  %44 = load i64, ptr %43, align 8
  %45 = icmp sle i64 %41, %44
  br i1 %45, label %47, label %46

46:                                               ; preds = %40, %34
  br label %23, !llvm.loop !75

47:                                               ; preds = %40
  %48 = load ptr, ptr %6, align 8
  %49 = getelementptr inbounds nuw %struct.slurmctld_resv, ptr %48, i32 0, i32 25
  %50 = load ptr, ptr %49, align 8
  %51 = icmp ne ptr %50, null
  br i1 %51, label %52, label %61

52:                                               ; preds = %47
  %53 = load ptr, ptr %6, align 8
  %54 = getelementptr inbounds nuw %struct.slurmctld_resv, ptr %53, i32 0, i32 25
  %55 = load ptr, ptr %54, align 8
  %56 = load i32, ptr %3, align 4
  %57 = sext i32 %56 to i64
  %58 = call i32 @slurm_bit_test(ptr noundef %55, i64 noundef %57)
  %59 = icmp ne i32 %58, 0
  br i1 %59, label %60, label %61

60:                                               ; preds = %52
  store i8 1, ptr %4, align 1
  br label %62

61:                                               ; preds = %52, %47
  br label %23, !llvm.loop !75

62:                                               ; preds = %60, %23
  %63 = load ptr, ptr %5, align 8
  call void @list_iterator_destroy(ptr noundef %63)
  %64 = load i8, ptr %4, align 1, !range !11, !noundef !12
  %65 = trunc i8 %64 to i1
  store i1 %65, ptr %2, align 1
  store i32 1, ptr %8, align 4
  br label %66

66:                                               ; preds = %62, %18
  call void @llvm.lifetime.end.p0(i64 8, ptr %7) #10
  call void @llvm.lifetime.end.p0(i64 8, ptr %6) #10
  call void @llvm.lifetime.end.p0(i64 8, ptr %5) #10
  call void @llvm.lifetime.end.p0(i64 1, ptr %4) #10
  %67 = load i1, ptr %2, align 1
  ret i1 %67
}