; Function Attrs: nounwind uwtable
define dso_local noundef zeroext i1 @is_node_in_maint_reservation(i32 noundef %0) local_unnamed_addr #0 {
  %2 = icmp slt i32 %0, 0
  br i1 %2, label %31, label %3

3:                                                ; preds = %1
  %4 = load i32, ptr @node_record_count, align 4
  %5 = icmp slt i32 %0, %4
  %6 = load ptr, ptr @resv_list, align 8
  %7 = icmp ne ptr %6, null
  %or.cond = select i1 %5, i1 %7, i1 false
  br i1 %or.cond, label %8, label %31

8:                                                ; preds = %3
  %9 = tail call i64 @time(ptr noundef null) #19
  %10 = load ptr, ptr @resv_list, align 8
  %11 = tail call ptr @list_iterator_create(ptr noundef %10) #19
  %12 = zext nneg i32 %0 to i64
  %13 = tail call ptr @list_next(ptr noundef %11) #19
  %.not23.not = icmp eq ptr %13, null
  br i1 %.not23.not, label %._crit_edge, label %.lr.ph

.lr.ph:                                           ; preds = %8, %.backedge
  %14 = phi ptr [ %25, %.backedge ], [ %13, %8 ]
  %15 = getelementptr inbounds nuw i8, ptr %14, i64 128
  %16 = load i64, ptr %15, align 8
  %17 = and i64 %16, 1
  %18 = icmp eq i64 %17, 0
  br i1 %18, label %.backedge, label %19

19:                                               ; preds = %.lr.ph
  %20 = getelementptr inbounds nuw i8, ptr %14, i64 240
  %21 = load i64, ptr %20, align 8
  %.not19 = icmp slt i64 %9, %21
  br i1 %.not19, label %.backedge, label %22

22:                                               ; preds = %19
  %23 = getelementptr inbounds nuw i8, ptr %14, i64 104
  %24 = load i64, ptr %23, align 8
  %.not20 = icmp sgt i64 %9, %24
  br i1 %.not20, label %.backedge, label %26

.backedge:                                        ; preds = %26, %29, %19, %22, %.lr.ph
  %25 = tail call ptr @list_next(ptr noundef %11) #19
  %.not.not = icmp eq ptr %25, null
  br i1 %.not.not, label %._crit_edge, label %.lr.ph, !llvm.loop !81

26:                                               ; preds = %22
  %27 = getelementptr inbounds nuw i8, ptr %14, i64 192
  %28 = load ptr, ptr %27, align 8
  %.not21 = icmp eq ptr %28, null
  br i1 %.not21, label %.backedge, label %29

29:                                               ; preds = %26
  %30 = tail call i32 @slurm_bit_test(ptr noundef nonnull %28, i64 noundef %12) #19
  %.not22 = icmp eq i32 %30, 0
  br i1 %.not22, label %.backedge, label %._crit_edge

._crit_edge:                                      ; preds = %.backedge, %29, %8
  %.not.lcssa = phi i1 [ false, %8 ], [ true, %29 ], [ false, %.backedge ]
  tail call void @list_iterator_destroy(ptr noundef %11) #19
  br label %31

31:                                               ; preds = %1, %3, %._crit_edge
  %.0 = phi i1 [ %.not.lcssa, %._crit_edge ], [ false, %3 ], [ false, %1 ]
  ret i1 %.0
}